Certificate:
    Data:
        Version: 3 (0x2)
        Serial Number:
            81:7f:fb:61:2f:1c:ae:9a:d4:e4:e1:75:94:7e:41:4b
    Signature Algorithm: sha256WithRSAEncryption
        Issuer: CN=serveradmin.ru
        Validity
            Not Before: Jul 10 07:38:28 2019 GMT
            Not After : Jun 24 07:38:28 2022 GMT
        Subject: CN=user1
        Subject Public Key Info:
            Public Key Algorithm: rsaEncryption
                Public-Key: (2048 bit)
                Modulus:
                    00:b7:37:a8:01:f4:c7:e2:f5:94:88:c4:4d:cb:3b:
                    25:bf:e3:c0:aa:94:bd:1a:b4:c1:be:8a:f9:df:a4:
                    cc:ef:7b:7f:d6:74:4f:e2:b6:0e:ea:aa:b5:2f:be:
                    ac:f9:c4:82:1f:40:76:6f:90:8c:09:45:39:80:69:
                    2d:c5:e3:72:c2:70:cf:8b:1d:b9:0a:85:87:51:a6:
                    8a:c9:b4:c0:94:96:94:42:6e:9b:e3:6c:58:84:bf:
                    5c:0c:b8:b2:d4:a6:a5:0c:9d:91:ac:93:b4:87:ec:
                    05:1b:e2:89:6a:6e:cb:96:ab:10:54:b3:1a:a0:21:
                    99:06:8e:e1:d3:18:1c:08:99:6b:1e:e6:95:e0:bd:
                    2d:fc:f0:18:c2:26:07:39:ac:40:08:a8:b0:0c:d4:
                    cd:08:5b:2c:dd:7f:56:fb:c6:12:f4:08:9d:8d:db:
                    51:22:1a:16:b2:e7:68:f7:b0:55:3d:e1:47:4c:38:
                    59:32:b7:0e:11:be:9d:f9:59:8c:3a:b3:e7:fa:8d:
                    c8:36:d6:f6:70:50:b1:8d:a6:d5:da:36:44:d3:36:
                    3f:79:af:ed:0f:a2:0c:0c:ef:87:c3:fd:59:52:ef:
                    86:ea:b6:da:1e:f4:c3:d6:c7:c1:5f:c1:dc:b4:b1:
                    18:96:4b:da:e2:26:88:f8:8d:20:fc:d8:e7:5b:93:
                    35:6d
                Exponent: 65537 (0x10001)
        X509v3 extensions:
            X509v3 Basic Constraints: 
                CA:FALSE
            X509v3 Subject Key Identifier: 
                BB:15:B1:D6:AF:62:AA:69:46:66:AA:0D:F1:71:BF:14:7E:A9:39:CF
            X509v3 Authority Key Identifier: 
                keyid:07:8E:2D:55:25:2E:ED:99:81:B4:69:30:01:20:C8:54:3C:41:58:E6
                DirName:/CN=serveradmin.ru
                serial:AC:42:DB:F3:D3:F1:13:C5

            X509v3 Extended Key Usage: 
                TLS Web Client Authentication
            X509v3 Key Usage: 
                Digital Signature
    Signature Algorithm: sha256WithRSAEncryption
         64:50:cc:38:65:85:79:3a:78:3e:a5:b5:78:60:ba:d2:f6:f1:
         1c:4b:37:df:36:d1:e9:70:c5:3a:f4:14:32:17:43:d2:c0:07:
         e4:bc:39:65:f1:1e:40:a1:31:c0:a2:56:a4:09:67:71:cc:6a:
         d0:31:0e:d2:ae:49:83:37:85:78:00:a8:fe:a7:d7:cc:86:5c:
         99:85:f0:8a:eb:02:d0:55:87:19:4e:50:3c:0d:18:c8:2f:a5:
         5d:07:be:31:45:ac:11:52:e6:fe:82:d5:4b:df:82:f8:03:a3:
         30:0e:6c:36:72:df:43:8a:aa:1d:b5:2f:c6:4e:74:71:6f:89:
         7f:94:46:14:07:35:a0:93:d1:f3:9c:1b:72:96:f4:ea:8a:cc:
         da:42:0f:10:06:8c:e4:5b:87:05:0d:67:79:08:23:ce:23:7b:
         05:be:9b:38:66:01:54:7e:18:f9:1a:4e:8c:1e:58:1e:0f:93:
         07:e2:4e:10:f0:76:84:8f:a2:38:5d:e3:95:2e:3b:03:22:bb:
         4f:61:86:45:a7:3b:b8:8d:0e:ca:15:a1:d4:b0:7b:e4:a8:e7:
         0d:5a:e8:b7:61:5b:4c:11:fe:c5:47:80:ab:37:27:8b:da:ca:
         e4:be:3b:3d:10:b2:b4:cc:b3:15:48:07:62:70:eb:33:26:99:
         dc:31:de:0c
-----BEGIN CERTIFICATE-----
MIIDTzCCAjegAwIBAgIRAIF/+2EvHK6a1OThdZR+QUswDQYJKoZIhvcNAQELBQAw
GTEXMBUGA1UEAwwOc2VydmVyYWRtaW4ucnUwHhcNMTkwNzEwMDczODI4WhcNMjIw
NjI0MDczODI4WjAQMQ4wDAYDVQQDDAV1c2VyMTCCASIwDQYJKoZIhvcNAQEBBQAD
ggEPADCCAQoCggEBALc3qAH0x+L1lIjETcs7Jb/jwKqUvRq0wb6K+d+kzO97f9Z0
T+K2DuqqtS++rPnEgh9Adm+QjAlFOYBpLcXjcsJwz4sduQqFh1Gmism0wJSWlEJu
m+NsWIS/XAy4stSmpQydkayTtIfsBRviiWpuy5arEFSzGqAhmQaO4dMYHAiZax7m
leC9LfzwGMImBzmsQAiosAzUzQhbLN1/VvvGEvQInY3bUSIaFrLnaPewVT3hR0w4
WTK3DhG+nflZjDqz5/qNyDbW9nBQsY2m1do2RNM2P3mv7Q+iDAzvh8P9WVLvhuq2
2h70w9bHwV/B3LSxGJZL2uImiPiNIPzY51uTNW0CAwEAAaOBmjCBlzAJBgNVHRME
AjAAMB0GA1UdDgQWBBS7FbHWr2KqaUZmqg3xcb8Ufqk5zzBJBgNVHSMEQjBAgBQH
ji1VJS7tmYG0aTABIMhUPEFY5qEdpBswGTEXMBUGA1UEAwwOc2VydmVyYWRtaW4u
cnWCCQCsQtvz0/ETxTATBgNVHSUEDDAKBggrBgEFBQcDAjALBgNVHQ8EBAMCB4Aw
DQYJKoZIhvcNAQELBQADggEBAGRQzDhlhXk6eD6ltXhgutL28RxLN9820elwxTr0
FDIXQ9LAB+S8OWXxHkChMcCiVqQJZ3HMatAxDtKuSYM3hXgAqP6n18yGXJmF8Irr
AtBVhxlOUDwNGMgvpV0HvjFFrBFS5v6C1UvfgvgDozAObDZy30OKqh21L8ZOdHFv
iX+URhQHNaCT0fOcG3KW9OqKzNpCDxAGjORbhwUNZ3kII84jewW+mzhmAVR+GPka
ToweWB4PkwfiThDwdoSPojhd45UuOwMiu09hhkWnO7iNDsoVodSwe+So5w1a6Ldh
W0wR/sVHgKs3J4vayuS+Oz0QsrTMsxVIB2Jw6zMmmdwx3gw=
-----END CERTIFICATE-----
